; Function Attrs: mustprogress uwtable
define void @umtx_lock_77(ptr noundef %0) local_unnamed_addr #0 {
  %2 = icmp eq ptr %0, null
  %spec.store.select = select i1 %2, ptr @_ZN6icu_7712_GLOBAL__N_111globalMutexE, ptr %0
  %3 = getelementptr inbounds nuw i8, ptr %spec.store.select, i64 40
  %4 = load atomic i64, ptr %3 acquire, align 8
  %.0.i.i.i = inttoptr i64 %4 to ptr
  %5 = icmp eq i64 %4, 0
  br i1 %5, label %6, label %8

6:                                                ; preds = %1
  %7 = tail call noundef ptr @_ZN6icu_776UMutex8getMutexEv(ptr noundef nonnull align 8 dereferenceable(56) %spec.store.select)
  br label %8

8:                                                ; preds = %6, %1
  %.0.i = phi ptr [ %7, %6 ], [ %.0.i.i.i, %1 ]
  %9 = tail call noundef i32 @pthread_mutex_lock(ptr noundef nonnull align 8 dereferenceable(40) %.0.i) #11
  %.not.i.i = icmp eq i32 %9, 0
  br i1 %.not.i.i, label %_ZN6icu_776UMutex4lockEv.exit, label %10

10:                                               ; preds = %8
  tail call void @_ZSt20__throw_system_errori(i32 noundef %9) #12
  unreachable

_ZN6icu_776UMutex4lockEv.exit:                    ; preds = %8
  ret void
}